; Function Attrs: nounwind uwtable
define ptr @l_Lean_Environment_addConstAsync___lambda__3___boxed(ptr noundef %0) #1 {
  %2 = ptrtoint ptr %0 to i64
  %3 = and i64 %2, 1
  %.not.i.i = icmp eq i64 %3, 0
  br i1 %.not.i.i, label %7, label %4

4:                                                ; preds = %1
  %5 = lshr i64 %2, 1
  %6 = trunc i64 %5 to i32
  br label %lean_obj_tag.exit.i

7:                                                ; preds = %1
  %8 = getelementptr i8, ptr %0, i64 4
  %.val.i.i = load i32, ptr %8, align 4
  %9 = lshr i32 %.val.i.i, 24
  br label %lean_obj_tag.exit.i

lean_obj_tag.exit.i:                              ; preds = %7, %4
  %.0.i.i = phi i32 [ %6, %4 ], [ %9, %7 ]
  %10 = icmp eq i32 %.0.i.i, 0
  br i1 %10, label %11, label %13

11:                                               ; preds = %lean_obj_tag.exit.i
  %12 = load ptr, ptr @l___private_Lean_Environment_0__Lean_Environment_lakeAdd___lambda__1___closed__1, align 8, !tbaa !9
  br label %l_Lean_Environment_addConstAsync___lambda__3.exit

13:                                               ; preds = %lean_obj_tag.exit.i
  %14 = getelementptr inbounds nuw i8, ptr %0, i64 8
  %15 = load ptr, ptr %14, align 8, !tbaa !9
  %16 = getelementptr inbounds nuw i8, ptr %15, i64 32
  %17 = load ptr, ptr %16, align 8, !tbaa !9
  %18 = getelementptr inbounds nuw i8, ptr %17, i64 8
  %19 = load ptr, ptr %18, align 8, !tbaa !9
  %20 = load ptr, ptr @l_Lean_instTypeNameAsyncConsts, align 8, !tbaa !9
  %21 = ptrtoint ptr %19 to i64
  %22 = and i64 %21, 1
  %.not.i3 = icmp eq i64 %22, 0
  br i1 %.not.i3, label %23, label %lean_inc.exit.i

23:                                               ; preds = %13
  %.val.i12.i = load i32, ptr %19, align 4, !tbaa !4
  %24 = icmp sgt i32 %.val.i12.i, 0
  br i1 %24, label %25, label %27, !prof !11

25:                                               ; preds = %23
  %26 = add nuw i32 %.val.i12.i, 1
  store i32 %26, ptr %19, align 4, !tbaa !4
  br label %lean_inc.exit.i

27:                                               ; preds = %23
  %.not.i13.i = icmp eq i32 %.val.i12.i, 0
  br i1 %.not.i13.i, label %lean_inc.exit.i, label %28

28:                                               ; preds = %27
  tail call void @lean_inc_ref_cold(ptr noundef nonnull %19) #10
  br label %lean_inc.exit.i

lean_inc.exit.i:                                  ; preds = %28, %27, %25, %13
  tail call void @lean_inc_heartbeat() #10
  %29 = tail call noalias ptr @mi_malloc_small(i64 noundef 24) #10
  %30 = icmp eq ptr %29, null
  br i1 %30, label %31, label %lean_alloc_ctor.exit.i

31:                                               ; preds = %lean_inc.exit.i
  tail call void @lean_internal_panic_out_of_memory() #11
  unreachable

lean_alloc_ctor.exit.i:                           ; preds = %lean_inc.exit.i
  %32 = getelementptr inbounds nuw i8, ptr %29, i64 4
  store i32 1, ptr %29, align 4, !tbaa !4
  store i32 131096, ptr %32, align 4
  %33 = getelementptr inbounds nuw i8, ptr %29, i64 8
  store ptr %20, ptr %33, align 8, !tbaa !9
  %34 = getelementptr inbounds nuw i8, ptr %29, i64 16
  store ptr %19, ptr %34, align 8, !tbaa !9
  br label %l_Lean_Environment_addConstAsync___lambda__3.exit

l_Lean_Environment_addConstAsync___lambda__3.exit: ; preds = %11, %lean_alloc_ctor.exit.i
  %.0.i = phi ptr [ %12, %11 ], [ %29, %lean_alloc_ctor.exit.i ]
  br i1 %.not.i.i, label %35, label %lean_dec.exit

35:                                               ; preds = %l_Lean_Environment_addConstAsync___lambda__3.exit
  %36 = load i32, ptr %0, align 4, !tbaa !4
  %37 = icmp sgt i32 %36, 1
  br i1 %37, label %38, label %40, !prof !11

38:                                               ; preds = %35
  %39 = add nsw i32 %36, -1
  store i32 %39, ptr %0, align 4, !tbaa !4
  br label %lean_dec.exit

40:                                               ; preds = %35
  %.not.i = icmp eq i32 %36, 0
  br i1 %.not.i, label %lean_dec.exit, label %41

41:                                               ; preds = %40
  tail call void @lean_dec_ref_cold(ptr noundef nonnull %0) #10
  br label %lean_dec.exit

lean_dec.exit:                                    ; preds = %41, %40, %38, %l_Lean_Environment_addConstAsync___lambda__3.exit
  ret ptr %.0.i
}